target datalayout = "e-m:e-p270:32:32-p271:32:32-p272:64:64-i64:64-i128:128-f80:128-n8:16:32:64-S128"
target triple = "x86_64-pc-linux-gnu"

%"struct.cv::softdouble" = type { i64 }

; Function Attrs: mustprogress nounwind uwtable
define linkonce_odr hidden void @_ZN2cv10softdoubleC2Ev(ptr noundef nonnull align 8 dereferenceable(8) %0) unnamed_addr #1 comdat align 2 {
  %2 = alloca ptr, align 8
  store ptr %0, ptr %2, align 8
  %3 = load ptr, ptr %2, align 8
  %4 = getelementptr inbounds %"struct.cv::softdouble", ptr %3, i32 0, i32 0
  store i64 0, ptr %4, align 8
  ret void
}

; Function Attrs: mustprogress uwtable
define linkonce_odr hidden void @_ZN2cv10softdouble7fromRawEm(ptr dead_on_unwind noalias writable sret(%"struct.cv::softdouble") align 8 %0, i64 noundef %1) #0 comdat align 2 {
  %3 = alloca ptr, align 8
  %4 = alloca i64, align 8
  store ptr %0, ptr %3, align 8
  store i64 %1, ptr %4, align 8
  call void @_ZN2cv10softdoubleC2Ev(ptr noundef nonnull align 8 dereferenceable(8) %0)
  %5 = load i64, ptr %4, align 8
  %6 = getelementptr inbounds %"struct.cv::softdouble", ptr %0, i32 0, i32 0
  store i64 %5, ptr %6, align 8
  ret void
}

; Function Attrs: mustprogress nounwind uwtable
define linkonce_odr hidden noundef nonnull align 8 dereferenceable(8) ptr @_ZN2cv10softdoubleaSERKS0_(ptr noundef nonnull align 8 dereferenceable(8) %0, ptr noundef nonnull align 8 dereferenceable(8) %1) #1 comdat align 2 {
  %3 = alloca ptr, align 8
  %4 = alloca ptr, align 8
  store ptr %0, ptr %3, align 8
  store ptr %1, ptr %4, align 8
  %5 = load ptr, ptr %3, align 8
  %6 = load ptr, ptr %4, align 8
  %7 = icmp ne ptr %6, %5
  br i1 %7, label %8, label %13

8:                                                ; preds = %2
  %9 = load ptr, ptr %4, align 8
  %10 = getelementptr inbounds %"struct.cv::softdouble", ptr %9, i32 0, i32 0
  %11 = load i64, ptr %10, align 8
  %12 = getelementptr inbounds %"struct.cv::softdouble", ptr %5, i32 0, i32 0
  store i64 %11, ptr %12, align 8
  br label %13

13:                                               ; preds = %8, %2
  ret ptr %5
}

; Function Attrs: mustprogress uwtable
define internal void @_ZN2cvL10i64_to_f64El(ptr dead_on_unwind noalias writable sret(%"struct.cv::softdouble") align 8 %0, i64 noundef %1) #0 {
  %3 = alloca ptr, align 8
  %4 = alloca i64, align 8
  %5 = alloca i8, align 1
  %6 = alloca i64, align 8
  store ptr %0, ptr %3, align 8
  store i64 %1, ptr %4, align 8
  %7 = load i64, ptr %4, align 8
  %8 = icmp slt i64 %7, 0
  %9 = zext i1 %8 to i8
  store i8 %9, ptr %5, align 1
  %10 = load i64, ptr %4, align 8
  %11 = and i64 %10, 9223372036854775807
  %12 = icmp ne i64 %11, 0
  br i1 %12, label %17, label %13

13:                                               ; preds = %2
  %14 = load i8, ptr %5, align 1
  %15 = trunc i8 %14 to i1
  %16 = select i1 %15, i64 -4332462841530417152, i64 0
  call void @_ZN2cv10softdouble7fromRawEm(ptr dead_on_unwind writable sret(%"struct.cv::softdouble") align 8 %0, i64 noundef %16)
  br label %31

17:                                               ; preds = %2
  %18 = load i8, ptr %5, align 1
  %19 = trunc i8 %18 to i1
  br i1 %19, label %20, label %24

20:                                               ; preds = %17
  %21 = load i64, ptr %4, align 8
  %22 = xor i64 %21, -1
  %23 = add i64 %22, 1
  br label %26

24:                                               ; preds = %17
  %25 = load i64, ptr %4, align 8
  br label %26

26:                                               ; preds = %24, %20
  %27 = phi i64 [ %23, %20 ], [ %25, %24 ]
  store i64 %27, ptr %6, align 8
  %28 = load i8, ptr %5, align 1
  %29 = trunc i8 %28 to i1
  %30 = load i64, ptr %6, align 8
  call void @_ZN2cvL28softfloat_normRoundPackToF64Eblm(ptr dead_on_unwind writable sret(%"struct.cv::softdouble") align 8 %0, i1 noundef zeroext %29, i64 noundef 1084, i64 noundef %30)
  br label %31

31:                                               ; preds = %26, %13
  ret void
}

; Function Attrs: mustprogress uwtable
define void @_ZN2cv10softdoubleC2El(ptr noundef nonnull align 8 dereferenceable(8) %0, i64 noundef %1) unnamed_addr #0 align 2 {
  %3 = alloca ptr, align 8
  %4 = alloca i64, align 8
  %5 = alloca %"struct.cv::softdouble", align 8
  store ptr %0, ptr %3, align 8
  store i64 %1, ptr %4, align 8
  %6 = load ptr, ptr %3, align 8
  %7 = load i64, ptr %4, align 8
  call void @_ZN2cvL10i64_to_f64El(ptr dead_on_unwind writable sret(%"struct.cv::softdouble") align 8 %5, i64 noundef %7)
  %8 = call noundef nonnull align 8 dereferenceable(8) ptr @_ZN2cv10softdoubleaSERKS0_(ptr noundef nonnull align 8 dereferenceable(8) %6, ptr noundef nonnull align 8 dereferenceable(8) %5)
  ret void
}