; Function Attrs: mustprogress nofree norecurse nosync nounwind willreturn memory(argmem: write) uwtable
define void @_ZN2cv10softdoubleC2El(ptr nocapture noundef nonnull writeonly align 8 dereferenceable(8) %0, i64 noundef %1) unnamed_addr #0 align 2 {
  %3 = alloca %"struct.cv::softdouble", align 8
  %4 = icmp slt i64 %1, 0
  %5 = and i64 %1, 9223372036854775807
  %.not.i = icmp eq i64 %5, 0
  br i1 %.not.i, label %6, label %8

6:                                                ; preds = %2
  %7 = select i1 %4, i64 -4332462841530417152, i64 0
  br label %_ZN2cvL10i64_to_f64El.exit

8:                                                ; preds = %2
  %9 = tail call i64 @llvm.abs.i64(i64 %1, i1 false)
  call fastcc void @_ZN2cvL28softfloat_normRoundPackToF64Eblm(ptr dead_on_unwind noalias nonnull writable align 8 %3, i1 noundef zeroext %4, i64 noundef 1084, i64 noundef %9), !alias.scope !52
  %.pre = load i64, ptr %3, align 8
  br label %_ZN2cvL10i64_to_f64El.exit

_ZN2cvL10i64_to_f64El.exit:                       ; preds = %8, %6
  %10 = phi i64 [ %.pre, %8 ], [ %7, %6 ]
  store i64 %10, ptr %0, align 8
  ret void
}